target datalayout = "e-m:e-p270:32:32-p271:32:32-p272:64:64-i64:64-i128:128-f80:128-n8:16:32:64-S128"
target triple = "x86_64-pc-linux-gnu"

%"struct.folly::compression::zlib::Options" = type { i32, i32, i32, i32 }
%"class.folly::compression::zlib::(anonymous namespace)::ZlibStreamCodec" = type <{ %"class.folly::compression::StreamCodec.base", [3 x i8], %"struct.folly::compression::zlib::Options", [4 x i8], %"class.folly::Optional.10", %"class.folly::Optional.10", i32, i8, [3 x i8] }>
%"class.folly::compression::StreamCodec.base" = type <{ %"class.folly::compression::Codec.base", i32, %"class.folly::Range", %"class.folly::Optional", i8 }>
%"class.folly::compression::Codec.base" = type <{ ptr, i32 }>
%"class.folly::Range" = type { ptr, ptr }
%"class.folly::Optional" = type { %"struct.folly::Optional<unsigned long>::StorageTriviallyDestructible" }
%"struct.folly::Optional<unsigned long>::StorageTriviallyDestructible" = type <{ %union.anon, i8, [7 x i8] }>
%union.anon = type { i64 }
%"class.folly::Optional.10" = type { %"struct.folly::Optional<z_stream_s>::StorageTriviallyDestructible" }
%"struct.folly::Optional<z_stream_s>::StorageTriviallyDestructible" = type <{ %union.anon.11, i8, [7 x i8] }>
%union.anon.11 = type { %struct.z_stream_s }
%struct.z_stream_s = type { ptr, i32, i64, ptr, i32, i64, ptr, ptr, ptr, ptr, ptr, i32, i64, i64 }

; Function Attrs: mustprogress nounwind uwtable
define linkonce_odr void @_ZN5folly8OptionalI10z_stream_sE28StorageTriviallyDestructible5clearEv(ptr noundef nonnull align 8 dereferenceable(113) %0) #1 comdat align 2 {
  %2 = alloca ptr, align 8
  store ptr %0, ptr %2, align 8, !tbaa !142
  %3 = load ptr, ptr %2, align 8
  %4 = getelementptr inbounds nuw %"struct.folly::Optional<z_stream_s>::StorageTriviallyDestructible", ptr %3, i32 0, i32 1
  store i8 0, ptr %4, align 8, !tbaa !144
  ret void
}

; Function Attrs: mustprogress nounwind uwtable
define linkonce_odr noundef zeroext i1 @_ZNK5folly8OptionalI10z_stream_sE9has_valueEv(ptr noundef nonnull align 8 dereferenceable(120) %0) #1 comdat align 2 {
  %2 = alloca ptr, align 8
  store ptr %0, ptr %2, align 8, !tbaa !65
  %3 = load ptr, ptr %2, align 8
  %4 = getelementptr inbounds nuw %"class.folly::Optional.10", ptr %3, i32 0, i32 0
  %5 = getelementptr inbounds nuw %"struct.folly::Optional<z_stream_s>::StorageTriviallyDestructible", ptr %4, i32 0, i32 1
  %6 = load i8, ptr %5, align 8, !tbaa !155, !range !92, !noundef !93
  %7 = trunc i8 %6 to i1
  ret i1 %7
}

; Function Attrs: mustprogress nounwind uwtable
define linkonce_odr void @_ZN5folly11compression5CodecD2Ev(ptr noundef nonnull align 8 dereferenceable(12) %0) unnamed_addr #1 comdat align 2 {
  %2 = alloca ptr, align 8
  store ptr %0, ptr %2, align 8, !tbaa !69
  ret void
}

; Function Attrs: mustprogress nounwind uwtable
define linkonce_odr void @_ZN5folly8OptionalI10z_stream_sE5resetEv(ptr noundef nonnull align 8 dereferenceable(120) %0) #1 comdat align 2 personality ptr @__gxx_personality_v0 {
  %2 = alloca ptr, align 8
  store ptr %0, ptr %2, align 8, !tbaa !65
  %3 = load ptr, ptr %2, align 8
  %4 = getelementptr inbounds nuw %"class.folly::Optional.10", ptr %3, i32 0, i32 0
  invoke void @_ZN5folly8OptionalI10z_stream_sE28StorageTriviallyDestructible5clearEv(ptr noundef nonnull align 8 dereferenceable(113) %4)
          to label %5 unwind label %6

5:                                                ; preds = %1
  ret void

6:                                                ; preds = %1
  %7 = landingpad { ptr, i32 }
          catch ptr null
  %8 = extractvalue { ptr, i32 } %7, 0
  call void @__clang_call_terminate(ptr %8) #25
  unreachable
}

; Function Attrs: mustprogress nounwind uwtable
define linkonce_odr noundef ptr @_ZNR5folly8OptionalI10z_stream_sE11get_pointerEv(ptr noundef nonnull align 8 dereferenceable(120) %0) #1 comdat align 2 {
  %2 = alloca ptr, align 8
  store ptr %0, ptr %2, align 8, !tbaa !65
  %3 = load ptr, ptr %2, align 8
  %4 = getelementptr inbounds nuw %"class.folly::Optional.10", ptr %3, i32 0, i32 0
  %5 = getelementptr inbounds nuw %"struct.folly::Optional<z_stream_s>::StorageTriviallyDestructible", ptr %4, i32 0, i32 1
  %6 = load i8, ptr %5, align 8, !tbaa !155, !range !92, !noundef !93
  %7 = trunc i8 %6 to i1
  br i1 %7, label %8, label %11

8:                                                ; preds = %1
  %9 = getelementptr inbounds nuw %"class.folly::Optional.10", ptr %3, i32 0, i32 0
  %10 = getelementptr inbounds nuw %"struct.folly::Optional<z_stream_s>::StorageTriviallyDestructible", ptr %9, i32 0, i32 0
  br label %12

11:                                               ; preds = %1
  br label %12

12:                                               ; preds = %11, %8
  %13 = phi ptr [ %10, %8 ], [ null, %11 ]
  ret ptr %13
}

; Function Attrs: mustprogress nounwind uwtable
define linkonce_odr noundef zeroext i1 @_ZNK5folly8OptionalI10z_stream_sEcvbEv(ptr noundef nonnull align 8 dereferenceable(120) %0) #1 comdat align 2 {
  %2 = alloca ptr, align 8
  store ptr %0, ptr %2, align 8, !tbaa !65
  %3 = load ptr, ptr %2, align 8
  %4 = call noundef zeroext i1 @_ZNK5folly8OptionalI10z_stream_sE9has_valueEv(ptr noundef nonnull align 8 dereferenceable(120) %3) #22
  ret i1 %4
}

; Function Attrs: mustprogress nounwind uwtable
define internal void @_ZN5folly11compression4zlib12_GLOBAL__N_115ZlibStreamCodecD2Ev(ptr noundef nonnull align 8 dereferenceable(320) %0) unnamed_addr #1 align 2 personality ptr @__gxx_personality_v0 {
  %2 = alloca ptr, align 8
  store ptr %0, ptr %2, align 8, !tbaa !30
  %3 = load ptr, ptr %2, align 8
  %4 = getelementptr inbounds nuw %"class.folly::compression::zlib::(anonymous namespace)::ZlibStreamCodec", ptr %3, i32 0, i32 4
  %5 = call noundef zeroext i1 @_ZNK5folly8OptionalI10z_stream_sEcvbEv(ptr noundef nonnull align 8 dereferenceable(120) %4) #22
  br i1 %5, label %6, label %13

6:                                                ; preds = %1
  %7 = getelementptr inbounds nuw %"class.folly::compression::zlib::(anonymous namespace)::ZlibStreamCodec", ptr %3, i32 0, i32 4
  %8 = invoke noundef ptr @_ZNR5folly8OptionalI10z_stream_sE11get_pointerEv(ptr noundef nonnull align 8 dereferenceable(120) %7)
          to label %9 unwind label %24

9:                                                ; preds = %6
  %10 = invoke i32 @deflateEnd(ptr noundef %8)
          to label %11 unwind label %24

11:                                               ; preds = %9
  %12 = getelementptr inbounds nuw %"class.folly::compression::zlib::(anonymous namespace)::ZlibStreamCodec", ptr %3, i32 0, i32 4
  call void @_ZN5folly8OptionalI10z_stream_sE5resetEv(ptr noundef nonnull align 8 dereferenceable(120) %12) #22
  br label %13

13:                                               ; preds = %11, %1
  %14 = getelementptr inbounds nuw %"class.folly::compression::zlib::(anonymous namespace)::ZlibStreamCodec", ptr %3, i32 0, i32 5
  %15 = call noundef zeroext i1 @_ZNK5folly8OptionalI10z_stream_sEcvbEv(ptr noundef nonnull align 8 dereferenceable(120) %14) #22
  br i1 %15, label %16, label %23

16:                                               ; preds = %13
  %17 = getelementptr inbounds nuw %"class.folly::compression::zlib::(anonymous namespace)::ZlibStreamCodec", ptr %3, i32 0, i32 5
  %18 = invoke noundef ptr @_ZNR5folly8OptionalI10z_stream_sE11get_pointerEv(ptr noundef nonnull align 8 dereferenceable(120) %17)
          to label %19 unwind label %24

19:                                               ; preds = %16
  %20 = invoke i32 @inflateEnd(ptr noundef %18)
          to label %21 unwind label %24

21:                                               ; preds = %19
  %22 = getelementptr inbounds nuw %"class.folly::compression::zlib::(anonymous namespace)::ZlibStreamCodec", ptr %3, i32 0, i32 5
  call void @_ZN5folly8OptionalI10z_stream_sE5resetEv(ptr noundef nonnull align 8 dereferenceable(120) %22) #22
  br label %23

23:                                               ; preds = %21, %13
  call void @_ZN5folly11compression5CodecD2Ev(ptr noundef nonnull align 8 dereferenceable(49) %3) #22
  ret void

24:                                               ; preds = %19, %16, %9, %6
  %25 = landingpad { ptr, i32 }
          catch ptr null
  %26 = extractvalue { ptr, i32 } %25, 0
  call void @__clang_call_terminate(ptr %26) #25
  unreachable
}

; Function Attrs: mustprogress nounwind uwtable
define internal void @_ZN5folly11compression4zlib12_GLOBAL__N_115ZlibStreamCodecD0Ev(ptr noundef nonnull align 8 dereferenceable(320) %0) unnamed_addr #1 align 2 {
  %2 = alloca ptr, align 8
  store ptr %0, ptr %2, align 8, !tbaa !30
  %3 = load ptr, ptr %2, align 8
  call void @_ZN5folly11compression4zlib12_GLOBAL__N_115ZlibStreamCodecD2Ev(ptr noundef nonnull align 8 dereferenceable(320) %3) #22
  call void @_ZdlPvm(ptr noundef %3, i64 noundef 320) #24
  ret void
}